ARM GAS  C:\Users\vic_user\AppData\Local\Temp\cccF3qAf.s 			page 1


   1              		.cpu cortex-m0plus
   2              		.eabi_attribute 20, 1
   3              		.eabi_attribute 21, 1
   4              		.eabi_attribute 23, 3
   5              		.eabi_attribute 24, 1
   6              		.eabi_attribute 25, 1
   7              		.eabi_attribute 26, 1
   8              		.eabi_attribute 30, 1
   9              		.eabi_attribute 34, 0
  10              		.eabi_attribute 18, 4
  11              		.file	"stm32l0xx_it.c"
  12              		.text
  13              	.Ltext0:
  14              		.cfi_sections	.debug_frame
  15              		.section	.text.NMI_Handler,"ax",%progbits
  16              		.align	1
  17              		.global	NMI_Handler
  18              		.arch armv6s-m
  19              		.syntax unified
  20              		.code	16
  21              		.thumb_func
  22              		.fpu softvfp
  24              	NMI_Handler:
  25              	.LFB40:
  26              		.file 1 "Core/Src/stm32l0xx_it.c"
   1:Core/Src/stm32l0xx_it.c **** /* USER CODE BEGIN Header */
   2:Core/Src/stm32l0xx_it.c **** /**
   3:Core/Src/stm32l0xx_it.c ****   ******************************************************************************
   4:Core/Src/stm32l0xx_it.c ****   * @file    stm32l0xx_it.c
   5:Core/Src/stm32l0xx_it.c ****   * @brief   Interrupt Service Routines.
   6:Core/Src/stm32l0xx_it.c ****   ******************************************************************************
   7:Core/Src/stm32l0xx_it.c ****   * @attention
   8:Core/Src/stm32l0xx_it.c ****   *
   9:Core/Src/stm32l0xx_it.c ****   * Copyright (c) 2022 STMicroelectronics.
  10:Core/Src/stm32l0xx_it.c ****   * All rights reserved.
  11:Core/Src/stm32l0xx_it.c ****   *
  12:Core/Src/stm32l0xx_it.c ****   * This software is licensed under terms that can be found in the LICENSE file
  13:Core/Src/stm32l0xx_it.c ****   * in the root directory of this software component.
  14:Core/Src/stm32l0xx_it.c ****   * If no LICENSE file comes with this software, it is provided AS-IS.
  15:Core/Src/stm32l0xx_it.c ****   *
  16:Core/Src/stm32l0xx_it.c ****   ******************************************************************************
  17:Core/Src/stm32l0xx_it.c ****   */
  18:Core/Src/stm32l0xx_it.c **** /* USER CODE END Header */
  19:Core/Src/stm32l0xx_it.c **** 
  20:Core/Src/stm32l0xx_it.c **** /* Includes ------------------------------------------------------------------*/
  21:Core/Src/stm32l0xx_it.c **** #include "main.h"
  22:Core/Src/stm32l0xx_it.c **** #include "stm32l0xx_it.h"
  23:Core/Src/stm32l0xx_it.c **** /* Private includes ----------------------------------------------------------*/
  24:Core/Src/stm32l0xx_it.c **** /* USER CODE BEGIN Includes */
  25:Core/Src/stm32l0xx_it.c **** /* USER CODE END Includes */
  26:Core/Src/stm32l0xx_it.c **** 
  27:Core/Src/stm32l0xx_it.c **** /* Private typedef -----------------------------------------------------------*/
  28:Core/Src/stm32l0xx_it.c **** /* USER CODE BEGIN TD */
  29:Core/Src/stm32l0xx_it.c **** 
  30:Core/Src/stm32l0xx_it.c **** /* USER CODE END TD */
  31:Core/Src/stm32l0xx_it.c **** 
  32:Core/Src/stm32l0xx_it.c **** /* Private define ------------------------------------------------------------*/
ARM GAS  C:\Users\vic_user\AppData\Local\Temp\cccF3qAf.s 			page 2


  33:Core/Src/stm32l0xx_it.c **** /* USER CODE BEGIN PD */
  34:Core/Src/stm32l0xx_it.c **** 
  35:Core/Src/stm32l0xx_it.c **** /* USER CODE END PD */
  36:Core/Src/stm32l0xx_it.c **** 
  37:Core/Src/stm32l0xx_it.c **** /* Private macro -------------------------------------------------------------*/
  38:Core/Src/stm32l0xx_it.c **** /* USER CODE BEGIN PM */
  39:Core/Src/stm32l0xx_it.c **** 
  40:Core/Src/stm32l0xx_it.c **** /* USER CODE END PM */
  41:Core/Src/stm32l0xx_it.c **** 
  42:Core/Src/stm32l0xx_it.c **** /* Private variables ---------------------------------------------------------*/
  43:Core/Src/stm32l0xx_it.c **** /* USER CODE BEGIN PV */
  44:Core/Src/stm32l0xx_it.c **** 
  45:Core/Src/stm32l0xx_it.c **** /* USER CODE END PV */
  46:Core/Src/stm32l0xx_it.c **** 
  47:Core/Src/stm32l0xx_it.c **** /* Private function prototypes -----------------------------------------------*/
  48:Core/Src/stm32l0xx_it.c **** /* USER CODE BEGIN PFP */
  49:Core/Src/stm32l0xx_it.c **** 
  50:Core/Src/stm32l0xx_it.c **** /* USER CODE END PFP */
  51:Core/Src/stm32l0xx_it.c **** 
  52:Core/Src/stm32l0xx_it.c **** /* Private user code ---------------------------------------------------------*/
  53:Core/Src/stm32l0xx_it.c **** /* USER CODE BEGIN 0 */
  54:Core/Src/stm32l0xx_it.c **** enum State {address, length, crcl, crch, payload};
  55:Core/Src/stm32l0xx_it.c **** enum State currentState = address;
  56:Core/Src/stm32l0xx_it.c **** 
  57:Core/Src/stm32l0xx_it.c **** /* USER CODE END 0 */
  58:Core/Src/stm32l0xx_it.c **** 
  59:Core/Src/stm32l0xx_it.c **** /* External variables --------------------------------------------------------*/
  60:Core/Src/stm32l0xx_it.c **** extern UART_HandleTypeDef hlpuart1;
  61:Core/Src/stm32l0xx_it.c **** /* USER CODE BEGIN EV */
  62:Core/Src/stm32l0xx_it.c **** 
  63:Core/Src/stm32l0xx_it.c **** /* USER CODE END EV */
  64:Core/Src/stm32l0xx_it.c **** 
  65:Core/Src/stm32l0xx_it.c **** /******************************************************************************/
  66:Core/Src/stm32l0xx_it.c **** /*           Cortex-M0+ Processor Interruption and Exception Handlers          */
  67:Core/Src/stm32l0xx_it.c **** /******************************************************************************/
  68:Core/Src/stm32l0xx_it.c **** /**
  69:Core/Src/stm32l0xx_it.c ****   * @brief This function handles Non maskable interrupt.
  70:Core/Src/stm32l0xx_it.c ****   */
  71:Core/Src/stm32l0xx_it.c **** void NMI_Handler(void)
  72:Core/Src/stm32l0xx_it.c **** {
  27              		.loc 1 72 1 view -0
  28              		.cfi_startproc
  29              		@ Volatile: function does not return.
  30              		@ args = 0, pretend = 0, frame = 0
  31              		@ frame_needed = 0, uses_anonymous_args = 0
  32              		@ link register save eliminated.
  33              	.L2:
  73:Core/Src/stm32l0xx_it.c ****   /* USER CODE BEGIN NonMaskableInt_IRQn 0 */
  74:Core/Src/stm32l0xx_it.c **** 
  75:Core/Src/stm32l0xx_it.c ****   /* USER CODE END NonMaskableInt_IRQn 0 */
  76:Core/Src/stm32l0xx_it.c ****   /* USER CODE BEGIN NonMaskableInt_IRQn 1 */
  77:Core/Src/stm32l0xx_it.c ****   while (1)
  34              		.loc 1 77 3 discriminator 1 view .LVU1
  78:Core/Src/stm32l0xx_it.c ****   {
  79:Core/Src/stm32l0xx_it.c ****   }
  35              		.loc 1 79 3 discriminator 1 view .LVU2
  77:Core/Src/stm32l0xx_it.c ****   {
ARM GAS  C:\Users\vic_user\AppData\Local\Temp\cccF3qAf.s 			page 3


  36              		.loc 1 77 9 discriminator 1 view .LVU3
  37 0000 FEE7     		b	.L2
  38              		.cfi_endproc
  39              	.LFE40:
  41              		.section	.text.HardFault_Handler,"ax",%progbits
  42              		.align	1
  43              		.global	HardFault_Handler
  44              		.syntax unified
  45              		.code	16
  46              		.thumb_func
  47              		.fpu softvfp
  49              	HardFault_Handler:
  50              	.LFB41:
  80:Core/Src/stm32l0xx_it.c ****   /* USER CODE END NonMaskableInt_IRQn 1 */
  81:Core/Src/stm32l0xx_it.c **** }
  82:Core/Src/stm32l0xx_it.c **** 
  83:Core/Src/stm32l0xx_it.c **** /**
  84:Core/Src/stm32l0xx_it.c ****   * @brief This function handles Hard fault interrupt.
  85:Core/Src/stm32l0xx_it.c ****   */
  86:Core/Src/stm32l0xx_it.c **** void HardFault_Handler(void)
  87:Core/Src/stm32l0xx_it.c **** {
  51              		.loc 1 87 1 view -0
  52              		.cfi_startproc
  53              		@ Volatile: function does not return.
  54              		@ args = 0, pretend = 0, frame = 0
  55              		@ frame_needed = 0, uses_anonymous_args = 0
  56              		@ link register save eliminated.
  57              	.L4:
  88:Core/Src/stm32l0xx_it.c ****   /* USER CODE BEGIN HardFault_IRQn 0 */
  89:Core/Src/stm32l0xx_it.c **** 
  90:Core/Src/stm32l0xx_it.c ****   /* USER CODE END HardFault_IRQn 0 */
  91:Core/Src/stm32l0xx_it.c ****   while (1)
  58              		.loc 1 91 3 discriminator 1 view .LVU5
  92:Core/Src/stm32l0xx_it.c ****   {
  93:Core/Src/stm32l0xx_it.c ****     /* USER CODE BEGIN W1_HardFault_IRQn 0 */
  94:Core/Src/stm32l0xx_it.c ****     /* USER CODE END W1_HardFault_IRQn 0 */
  95:Core/Src/stm32l0xx_it.c ****   }
  59              		.loc 1 95 3 discriminator 1 view .LVU6
  91:Core/Src/stm32l0xx_it.c ****   {
  60              		.loc 1 91 9 discriminator 1 view .LVU7
  61 0000 FEE7     		b	.L4
  62              		.cfi_endproc
  63              	.LFE41:
  65              		.section	.text.SVC_Handler,"ax",%progbits
  66              		.align	1
  67              		.global	SVC_Handler
  68              		.syntax unified
  69              		.code	16
  70              		.thumb_func
  71              		.fpu softvfp
  73              	SVC_Handler:
  74              	.LFB42:
  96:Core/Src/stm32l0xx_it.c **** }
  97:Core/Src/stm32l0xx_it.c **** 
  98:Core/Src/stm32l0xx_it.c **** /**
  99:Core/Src/stm32l0xx_it.c ****   * @brief This function handles System service call via SWI instruction.
 100:Core/Src/stm32l0xx_it.c ****   */
ARM GAS  C:\Users\vic_user\AppData\Local\Temp\cccF3qAf.s 			page 4


 101:Core/Src/stm32l0xx_it.c **** void SVC_Handler(void)
 102:Core/Src/stm32l0xx_it.c **** {
  75              		.loc 1 102 1 view -0
  76              		.cfi_startproc
  77              		@ args = 0, pretend = 0, frame = 0
  78              		@ frame_needed = 0, uses_anonymous_args = 0
  79              		@ link register save eliminated.
 103:Core/Src/stm32l0xx_it.c ****   /* USER CODE BEGIN SVC_IRQn 0 */
 104:Core/Src/stm32l0xx_it.c **** 
 105:Core/Src/stm32l0xx_it.c ****   /* USER CODE END SVC_IRQn 0 */
 106:Core/Src/stm32l0xx_it.c ****   /* USER CODE BEGIN SVC_IRQn 1 */
 107:Core/Src/stm32l0xx_it.c **** 
 108:Core/Src/stm32l0xx_it.c ****   /* USER CODE END SVC_IRQn 1 */
 109:Core/Src/stm32l0xx_it.c **** }
  80              		.loc 1 109 1 view .LVU9
  81              		@ sp needed
  82 0000 7047     		bx	lr
  83              		.cfi_endproc
  84              	.LFE42:
  86              		.section	.text.PendSV_Handler,"ax",%progbits
  87              		.align	1
  88              		.global	PendSV_Handler
  89              		.syntax unified
  90              		.code	16
  91              		.thumb_func
  92              		.fpu softvfp
  94              	PendSV_Handler:
  95              	.LFB43:
 110:Core/Src/stm32l0xx_it.c **** 
 111:Core/Src/stm32l0xx_it.c **** /**
 112:Core/Src/stm32l0xx_it.c ****   * @brief This function handles Pendable request for system service.
 113:Core/Src/stm32l0xx_it.c ****   */
 114:Core/Src/stm32l0xx_it.c **** void PendSV_Handler(void)
 115:Core/Src/stm32l0xx_it.c **** {
  96              		.loc 1 115 1 view -0
  97              		.cfi_startproc
  98              		@ args = 0, pretend = 0, frame = 0
  99              		@ frame_needed = 0, uses_anonymous_args = 0
 100              		@ link register save eliminated.
 116:Core/Src/stm32l0xx_it.c ****   /* USER CODE BEGIN PendSV_IRQn 0 */
 117:Core/Src/stm32l0xx_it.c **** 
 118:Core/Src/stm32l0xx_it.c ****   /* USER CODE END PendSV_IRQn 0 */
 119:Core/Src/stm32l0xx_it.c ****   /* USER CODE BEGIN PendSV_IRQn 1 */
 120:Core/Src/stm32l0xx_it.c **** 
 121:Core/Src/stm32l0xx_it.c ****   /* USER CODE END PendSV_IRQn 1 */
 122:Core/Src/stm32l0xx_it.c **** }
 101              		.loc 1 122 1 view .LVU11
 102              		@ sp needed
 103 0000 7047     		bx	lr
 104              		.cfi_endproc
 105              	.LFE43:
 107              		.section	.text.SysTick_Handler,"ax",%progbits
 108              		.align	1
 109              		.global	SysTick_Handler
 110              		.syntax unified
 111              		.code	16
 112              		.thumb_func
ARM GAS  C:\Users\vic_user\AppData\Local\Temp\cccF3qAf.s 			page 5


 113              		.fpu softvfp
 115              	SysTick_Handler:
 116              	.LFB44:
 123:Core/Src/stm32l0xx_it.c **** 
 124:Core/Src/stm32l0xx_it.c **** /**
 125:Core/Src/stm32l0xx_it.c ****   * @brief This function handles System tick timer.
 126:Core/Src/stm32l0xx_it.c ****   */
 127:Core/Src/stm32l0xx_it.c **** void SysTick_Handler(void)
 128:Core/Src/stm32l0xx_it.c **** {
 117              		.loc 1 128 1 view -0
 118              		.cfi_startproc
 119              		@ args = 0, pretend = 0, frame = 0
 120              		@ frame_needed = 0, uses_anonymous_args = 0
 121 0000 10B5     		push	{r4, lr}
 122              	.LCFI0:
 123              		.cfi_def_cfa_offset 8
 124              		.cfi_offset 4, -8
 125              		.cfi_offset 14, -4
 129:Core/Src/stm32l0xx_it.c ****   /* USER CODE BEGIN SysTick_IRQn 0 */
 130:Core/Src/stm32l0xx_it.c **** 
 131:Core/Src/stm32l0xx_it.c ****   /* USER CODE END SysTick_IRQn 0 */
 132:Core/Src/stm32l0xx_it.c ****   HAL_IncTick();
 126              		.loc 1 132 3 view .LVU13
 127 0002 FFF7FEFF 		bl	HAL_IncTick
 128              	.LVL0:
 133:Core/Src/stm32l0xx_it.c ****   /* USER CODE BEGIN SysTick_IRQn 1 */
 134:Core/Src/stm32l0xx_it.c **** 
 135:Core/Src/stm32l0xx_it.c ****   /* USER CODE END SysTick_IRQn 1 */
 136:Core/Src/stm32l0xx_it.c **** }
 129              		.loc 1 136 1 is_stmt 0 view .LVU14
 130              		@ sp needed
 131 0006 10BD     		pop	{r4, pc}
 132              		.cfi_endproc
 133              	.LFE44:
 135              		.section	.text.LPUART1_IRQHandler,"ax",%progbits
 136              		.align	1
 137              		.global	LPUART1_IRQHandler
 138              		.syntax unified
 139              		.code	16
 140              		.thumb_func
 141              		.fpu softvfp
 143              	LPUART1_IRQHandler:
 144              	.LFB45:
 137:Core/Src/stm32l0xx_it.c **** 
 138:Core/Src/stm32l0xx_it.c **** /******************************************************************************/
 139:Core/Src/stm32l0xx_it.c **** /* STM32L0xx Peripheral Interrupt Handlers                                    */
 140:Core/Src/stm32l0xx_it.c **** /* Add here the Interrupt Handlers for the used peripherals.                  */
 141:Core/Src/stm32l0xx_it.c **** /* For the available peripheral interrupt handler names,                      */
 142:Core/Src/stm32l0xx_it.c **** /* please refer to the startup file (startup_stm32l0xx.s).                    */
 143:Core/Src/stm32l0xx_it.c **** /******************************************************************************/
 144:Core/Src/stm32l0xx_it.c **** 
 145:Core/Src/stm32l0xx_it.c **** /**
 146:Core/Src/stm32l0xx_it.c ****   * @brief This function handles LPUART1 global interrupt / LPUART1 wake-up interrupt through EXTI 
 147:Core/Src/stm32l0xx_it.c ****   */
 148:Core/Src/stm32l0xx_it.c **** void LPUART1_IRQHandler(void)
 149:Core/Src/stm32l0xx_it.c **** {
 145              		.loc 1 149 1 is_stmt 1 view -0
ARM GAS  C:\Users\vic_user\AppData\Local\Temp\cccF3qAf.s 			page 6


 146              		.cfi_startproc
 147              		@ args = 0, pretend = 0, frame = 0
 148              		@ frame_needed = 0, uses_anonymous_args = 0
 149              		@ link register save eliminated.
 150:Core/Src/stm32l0xx_it.c ****   /* USER CODE BEGIN LPUART1_IRQn 0 */
 151:Core/Src/stm32l0xx_it.c ****   //if the current state is address and 
 152:Core/Src/stm32l0xx_it.c ****     int data = LPUART1->RDR;
 150              		.loc 1 152 5 view .LVU16
 151              		.loc 1 152 23 is_stmt 0 view .LVU17
 152 0000 084B     		ldr	r3, .L10
 153 0002 5A6A     		ldr	r2, [r3, #36]
 154              	.LVL1:
 153:Core/Src/stm32l0xx_it.c ****     int x;
 155              		.loc 1 153 5 is_stmt 1 view .LVU18
 154:Core/Src/stm32l0xx_it.c ****     if(currentState == address && (data &= 256) == 256) {
 156              		.loc 1 154 5 view .LVU19
 157              		.loc 1 154 21 is_stmt 0 view .LVU20
 158 0004 084B     		ldr	r3, .L10+4
 159 0006 1B78     		ldrb	r3, [r3]
 160              		.loc 1 154 7 view .LVU21
 161 0008 002B     		cmp	r3, #0
 162 000a 04D1     		bne	.L9
 163              	.LVL2:
 164              		.loc 1 154 32 discriminator 1 view .LVU22
 165 000c D305     		lsls	r3, r2, #23
 166 000e 02D5     		bpl	.L9
 155:Core/Src/stm32l0xx_it.c ****       //need to check if address is valid here, but for now, we'll assume it is. 
 156:Core/Src/stm32l0xx_it.c ****       currentState = length;
 167              		.loc 1 156 7 is_stmt 1 view .LVU23
 168              		.loc 1 156 20 is_stmt 0 view .LVU24
 169 0010 054B     		ldr	r3, .L10+4
 170 0012 0122     		movs	r2, #1
 171              	.LVL3:
 172              		.loc 1 156 20 view .LVU25
 173 0014 1A70     		strb	r2, [r3]
 174              	.L9:
 157:Core/Src/stm32l0xx_it.c ****     } 
 158:Core/Src/stm32l0xx_it.c ****     //set tc = 0 so that it knows it is complete. 
 159:Core/Src/stm32l0xx_it.c ****     LPUART1->ISR &= ~USART_ISR_TC_Msk;
 175              		.loc 1 159 5 is_stmt 1 view .LVU26
 176              		.loc 1 159 18 is_stmt 0 view .LVU27
 177 0016 034A     		ldr	r2, .L10
 178 0018 D369     		ldr	r3, [r2, #28]
 179 001a 4021     		movs	r1, #64
 180 001c 8B43     		bics	r3, r1
 181 001e D361     		str	r3, [r2, #28]
 160:Core/Src/stm32l0xx_it.c ****  return;
 182              		.loc 1 160 2 is_stmt 1 view .LVU28
 161:Core/Src/stm32l0xx_it.c ****   /* USER CODE END LPUART1_IRQn 0 */
 162:Core/Src/stm32l0xx_it.c ****   HAL_UART_IRQHandler(&hlpuart1);
 163:Core/Src/stm32l0xx_it.c ****   /* USER CODE BEGIN LPUART1_IRQn 1 */
 164:Core/Src/stm32l0xx_it.c **** 
 165:Core/Src/stm32l0xx_it.c ****   /* USER CODE END LPUART1_IRQn 1 */
 166:Core/Src/stm32l0xx_it.c **** }
 183              		.loc 1 166 1 is_stmt 0 view .LVU29
 184              		@ sp needed
 185 0020 7047     		bx	lr
ARM GAS  C:\Users\vic_user\AppData\Local\Temp\cccF3qAf.s 			page 7


 186              	.L11:
 187 0022 C046     		.align	2
 188              	.L10:
 189 0024 00480040 		.word	1073760256
 190 0028 00000000 		.word	.LANCHOR0
 191              		.cfi_endproc
 192              	.LFE45:
 194              		.global	currentState
 195              		.section	.bss.currentState,"aw",%nobits
 196              		.set	.LANCHOR0,. + 0
 199              	currentState:
 200 0000 00       		.space	1
 201              		.text
 202              	.Letext0:
 203              		.file 2 "c:\\programdata\\chocolatey\\lib\\gcc-arm-embedded\\tools\\gcc-arm-none-eabi-10-2020-q4-m
 204              		.file 3 "c:\\programdata\\chocolatey\\lib\\gcc-arm-embedded\\tools\\gcc-arm-none-eabi-10-2020-q4-m
 205              		.file 4 "Drivers/CMSIS/Device/ST/STM32L0xx/Include/stm32l011xx.h"
 206              		.file 5 "Drivers/STM32L0xx_HAL_Driver/Inc/stm32l0xx_hal.h"
ARM GAS  C:\Users\vic_user\AppData\Local\Temp\cccF3qAf.s 			page 8


DEFINED SYMBOLS
                            *ABS*:00000000 stm32l0xx_it.c
C:\Users\vic_user\AppData\Local\Temp\cccF3qAf.s:16     .text.NMI_Handler:00000000 $t
C:\Users\vic_user\AppData\Local\Temp\cccF3qAf.s:24     .text.NMI_Handler:00000000 NMI_Handler
C:\Users\vic_user\AppData\Local\Temp\cccF3qAf.s:42     .text.HardFault_Handler:00000000 $t
C:\Users\vic_user\AppData\Local\Temp\cccF3qAf.s:49     .text.HardFault_Handler:00000000 HardFault_Handler
C:\Users\vic_user\AppData\Local\Temp\cccF3qAf.s:66     .text.SVC_Handler:00000000 $t
C:\Users\vic_user\AppData\Local\Temp\cccF3qAf.s:73     .text.SVC_Handler:00000000 SVC_Handler
C:\Users\vic_user\AppData\Local\Temp\cccF3qAf.s:87     .text.PendSV_Handler:00000000 $t
C:\Users\vic_user\AppData\Local\Temp\cccF3qAf.s:94     .text.PendSV_Handler:00000000 PendSV_Handler
C:\Users\vic_user\AppData\Local\Temp\cccF3qAf.s:108    .text.SysTick_Handler:00000000 $t
C:\Users\vic_user\AppData\Local\Temp\cccF3qAf.s:115    .text.SysTick_Handler:00000000 SysTick_Handler
C:\Users\vic_user\AppData\Local\Temp\cccF3qAf.s:136    .text.LPUART1_IRQHandler:00000000 $t
C:\Users\vic_user\AppData\Local\Temp\cccF3qAf.s:143    .text.LPUART1_IRQHandler:00000000 LPUART1_IRQHandler
C:\Users\vic_user\AppData\Local\Temp\cccF3qAf.s:189    .text.LPUART1_IRQHandler:00000024 $d
C:\Users\vic_user\AppData\Local\Temp\cccF3qAf.s:199    .bss.currentState:00000000 currentState
C:\Users\vic_user\AppData\Local\Temp\cccF3qAf.s:200    .bss.currentState:00000000 $d

UNDEFINED SYMBOLS
HAL_IncTick
